; Function Attrs: mustprogress uwtable
define dso_local void @_ZN11flatbuffers9SetStringERKN10reflection6SchemaERKNSt7__cxx1112basic_stringIcSt11char_traitsIcESaIcEEEPKNS_6StringEPSt6vectorIhSaIhEEPKNS0_6ObjectE(ptr noundef nonnull align 1 dereferenceable(1) %0, ptr noundef nonnull readonly align 8 captures(none) dereferenceable(32) %1, ptr noundef %2, ptr noundef %3, ptr noundef %4) local_unnamed_addr #2 personality ptr @__gxx_personality_v0 {
  %6 = alloca %"class.flatbuffers::ResizeContext", align 8
  %7 = getelementptr inbounds nuw i8, ptr %1, i64 8
  %8 = load i64, ptr %7, align 8, !tbaa !27
  %9 = trunc i64 %8 to i32
  %10 = load i32, ptr %2, align 4, !tbaa !31
  %11 = load ptr, ptr %3, align 8, !tbaa !70
  %12 = ptrtoint ptr %2 to i64
  %13 = ptrtoint ptr %11 to i64
  %14 = sub i64 %12, %13
  %15 = trunc i64 %14 to i32
  %16 = add i32 %15, 4
  %.not = icmp eq i32 %10, %9
  br i1 %.not, label %._crit_edge, label %17

._crit_edge:                                      ; preds = %5
  %.pre23 = zext i32 %16 to i64
  br label %35

17:                                               ; preds = %5
  %18 = sub nsw i32 %9, %10
  %19 = zext i32 %16 to i64
  %20 = getelementptr inbounds nuw i8, ptr %11, i64 %19
  %21 = zext i32 %10 to i64
  tail call void @llvm.memset.p0.i64(ptr align 1 %20, i8 0, i64 %21, i1 false)
  call void @llvm.lifetime.start.p0(i64 56, ptr nonnull %6) #21
  call void @_ZN11flatbuffers13ResizeContextC2ERKN10reflection6SchemaEjiPSt6vectorIhSaIhEEPKNS1_6ObjectE(ptr noundef nonnull align 8 dereferenceable(56) %6, ptr noundef nonnull align 1 dereferenceable(1) %0, i32 noundef %16, i32 noundef %18, ptr noundef nonnull %3, ptr noundef %4)
  %22 = load ptr, ptr %3, align 8, !tbaa !70
  %23 = and i64 %14, 4294967295
  %24 = getelementptr inbounds nuw i8, ptr %22, i64 %23
  %25 = load i64, ptr %7, align 8, !tbaa !27
  %26 = trunc i64 %25 to i32
  store i32 %26, ptr %24, align 4, !tbaa !9
  %27 = getelementptr inbounds nuw i8, ptr %6, i64 32
  %28 = load ptr, ptr %27, align 8, !tbaa !70
  %.not.i.i.i.i = icmp eq ptr %28, null
  br i1 %.not.i.i.i.i, label %_ZN11flatbuffers13ResizeContextD2Ev.exit, label %29

29:                                               ; preds = %17
  %30 = getelementptr inbounds nuw i8, ptr %6, i64 48
  %31 = load ptr, ptr %30, align 8, !tbaa !72
  %32 = ptrtoint ptr %31 to i64
  %33 = ptrtoint ptr %28 to i64
  %34 = sub i64 %32, %33
  call void @_ZdlPvm(ptr noundef nonnull %28, i64 noundef %34) #23
  %.pre.pre = load ptr, ptr %3, align 8, !tbaa !70
  %.pre20.pre = load i64, ptr %7, align 8, !tbaa !27
  br label %_ZN11flatbuffers13ResizeContextD2Ev.exit

_ZN11flatbuffers13ResizeContextD2Ev.exit:         ; preds = %17, %29
  %.pre20 = phi i64 [ %25, %17 ], [ %.pre20.pre, %29 ]
  %.pre = phi ptr [ %22, %17 ], [ %.pre.pre, %29 ]
  call void @llvm.lifetime.end.p0(i64 56, ptr nonnull %6) #21
  br label %35

35:                                               ; preds = %._crit_edge, %_ZN11flatbuffers13ResizeContextD2Ev.exit
  %.pre-phi = phi i64 [ %.pre23, %._crit_edge ], [ %19, %_ZN11flatbuffers13ResizeContextD2Ev.exit ]
  %36 = phi i64 [ %8, %._crit_edge ], [ %.pre20, %_ZN11flatbuffers13ResizeContextD2Ev.exit ]
  %37 = phi ptr [ %11, %._crit_edge ], [ %.pre, %_ZN11flatbuffers13ResizeContextD2Ev.exit ]
  %38 = getelementptr inbounds nuw i8, ptr %37, i64 %.pre-phi
  %39 = load ptr, ptr %1, align 8, !tbaa !25
  %40 = add i64 %36, 1
  call void @llvm.memcpy.p0.p0.i64(ptr align 1 %38, ptr align 1 %39, i64 %40, i1 false)
  ret void
}